target datalayout = "e-m:e-p270:32:32-p271:32:32-p272:64:64-i64:64-i128:128-f80:128-n8:16:32:64-S128"
target triple = "x86_64-pc-linux-gnu"

%struct._psqlSettings = type { ptr, i32, ptr, i8, ptr, ptr, %struct.printQueryOpt, ptr, ptr, ptr, i8, i8, i32, i32, ptr, ptr, i8, [4 x ptr], i8, i32, ptr, i8, i32, ptr, ptr, i64, i64, i8, ptr, ptr, ptr, i8, i8, i8, i8, i8, i8, i8, i32, i32, i32, i32, i32, i32, i32, i32, ptr, ptr, ptr, i32, i8, i32 }
%struct.printQueryOpt = type { %struct.printTableOpt, ptr, ptr, ptr, i8, ptr, i32 }
%struct.printTableOpt = type { i32, i16, i32, i32, i16, i16, i32, i8, i8, i8, i8, i64, ptr, %struct.separator, %struct.separator, [2 x i8], i8, ptr, i32, i32, i32, i32, i32, i32 }
%struct.separator = type { ptr, i8 }
%struct.PQExpBufferData = type { ptr, i64, i64 }

@.str = private unnamed_addr constant [47 x i8] c"psql is the PostgreSQL interactive terminal.\0A\0A\00", align 1
@.str.1 = private unnamed_addr constant [8 x i8] c"Usage:\0A\00", align 1
@.str.2 = private unnamed_addr constant [41 x i8] c"  psql [OPTION]... [DBNAME [USERNAME]]\0A\0A\00", align 1
@.str.3 = private unnamed_addr constant [18 x i8] c"General options:\0A\00", align 1
@.str.4 = private unnamed_addr constant [79 x i8] c"  -c, --command=COMMAND    run only single command (SQL or internal) and exit\0A\00", align 1
@.str.5 = private unnamed_addr constant [56 x i8] c"  -d, --dbname=DBNAME      database name to connect to\0A\00", align 1
@.str.6 = private unnamed_addr constant [66 x i8] c"  -f, --file=FILENAME      execute commands from file, then exit\0A\00", align 1
@.str.7 = private unnamed_addr constant [64 x i8] c"  -l, --list               list available databases, then exit\0A\00", align 1
@.str.8 = private unnamed_addr constant [150 x i8] c"  -v, --set=, --variable=NAME=VALUE\0A                           set psql variable NAME to VALUE\0A                           (e.g., -v ON_ERROR_STOP=1)\0A\00", align 1
@.str.9 = private unnamed_addr constant [66 x i8] c"  -V, --version            output version information, then exit\0A\00", align 1
@.str.10 = private unnamed_addr constant [65 x i8] c"  -X, --no-psqlrc          do not read startup file (~/.psqlrc)\0A\00", align 1
@.str.11 = private unnamed_addr constant [116 x i8] c"  -1 (\22one\22), --single-transaction\0A                           execute as a single transaction (if non-interactive)\0A\00", align 1
@.str.12 = private unnamed_addr constant [54 x i8] c"  -?, --help[=options]     show this help, then exit\0A\00", align 1
@.str.13 = private unnamed_addr constant [63 x i8] c"      --help=commands      list backslash commands, then exit\0A\00", align 1
@.str.14 = private unnamed_addr constant [62 x i8] c"      --help=variables     list special variables, then exit\0A\00", align 1
@.str.15 = private unnamed_addr constant [28 x i8] c"\0AInput and output options:\0A\00", align 1
@.str.16 = private unnamed_addr constant [55 x i8] c"  -a, --echo-all           echo all input from script\0A\00", align 1
@.str.17 = private unnamed_addr constant [49 x i8] c"  -b, --echo-errors        echo failed commands\0A\00", align 1
@.str.18 = private unnamed_addr constant [57 x i8] c"  -e, --echo-queries       echo commands sent to server\0A\00", align 1
@.str.19 = private unnamed_addr constant [76 x i8] c"  -E, --echo-hidden        display queries that internal commands generate\0A\00", align 1
@.str.20 = private unnamed_addr constant [53 x i8] c"  -L, --log-file=FILENAME  send session log to file\0A\00", align 1
@.str.21 = private unnamed_addr constant [77 x i8] c"  -n, --no-readline        disable enhanced command line editing (readline)\0A\00", align 1
@.str.22 = private unnamed_addr constant [66 x i8] c"  -o, --output=FILENAME    send query results to file (or |pipe)\0A\00", align 1
@.str.23 = private unnamed_addr constant [73 x i8] c"  -q, --quiet              run quietly (no messages, only query output)\0A\00", align 1
@.str.24 = private unnamed_addr constant [66 x i8] c"  -s, --single-step        single-step mode (confirm each query)\0A\00", align 1
@.str.25 = private unnamed_addr constant [82 x i8] c"  -S, --single-line        single-line mode (end of line terminates SQL command)\0A\00", align 1
@.str.26 = private unnamed_addr constant [25 x i8] c"\0AOutput format options:\0A\00", align 1
@.str.27 = private unnamed_addr constant [56 x i8] c"  -A, --no-align           unaligned table output mode\0A\00", align 1
@.str.28 = private unnamed_addr constant [75 x i8] c"      --csv                CSV (Comma-Separated Values) table output mode\0A\00", align 1
@.str.29 = private unnamed_addr constant [112 x i8] c"  -F, --field-separator=STRING\0A                           field separator for unaligned output (default: \22%s\22)\0A\00", align 1
@.str.30 = private unnamed_addr constant [2 x i8] c"|\00", align 1
@.str.31 = private unnamed_addr constant [51 x i8] c"  -H, --html               HTML table output mode\0A\00", align 1
@.str.32 = private unnamed_addr constant [79 x i8] c"  -P, --pset=VAR[=ARG]     set printing option VAR to ARG (see \\pset command)\0A\00", align 1
@.str.33 = private unnamed_addr constant [117 x i8] c"  -R, --record-separator=STRING\0A                           record separator for unaligned output (default: newline)\0A\00", align 1
@.str.34 = private unnamed_addr constant [44 x i8] c"  -t, --tuples-only        print rows only\0A\00", align 1
@.str.35 = private unnamed_addr constant [80 x i8] c"  -T, --table-attr=TEXT    set HTML table tag attributes (e.g., width, border)\0A\00", align 1
@.str.36 = private unnamed_addr constant [58 x i8] c"  -x, --expanded           turn on expanded table output\0A\00", align 1
@.str.37 = private unnamed_addr constant [111 x i8] c"  -z, --field-separator-zero\0A                           set field separator for unaligned output to zero byte\0A\00", align 1
@.str.38 = private unnamed_addr constant [113 x i8] c"  -0, --record-separator-zero\0A                           set record separator for unaligned output to zero byte\0A\00", align 1
@.str.39 = private unnamed_addr constant [22 x i8] c"\0AConnection options:\0A\00", align 1
@.str.40 = private unnamed_addr constant [69 x i8] c"  -h, --host=HOSTNAME      database server host or socket directory\0A\00", align 1
@.str.41 = private unnamed_addr constant [49 x i8] c"  -p, --port=PORT          database server port\0A\00", align 1
@.str.42 = private unnamed_addr constant [47 x i8] c"  -U, --username=USERNAME  database user name\0A\00", align 1
@.str.43 = private unnamed_addr constant [54 x i8] c"  -w, --no-password        never prompt for password\0A\00", align 1
@.str.44 = private unnamed_addr constant [80 x i8] c"  -W, --password           force password prompt (should happen automatically)\0A\00", align 1
@.str.45 = private unnamed_addr constant [168 x i8] c"\0AFor more information, type \22\\?\22 (for internal commands) or \22\\help\22 (for SQL\0Acommands) from within psql, or consult the psql section in the PostgreSQL\0Adocumentation.\0A\0A\00", align 1
@.str.46 = private unnamed_addr constant [22 x i8] c"Report bugs to <%s>.\0A\00", align 1
@.str.47 = private unnamed_addr constant [32 x i8] c"pgsql-bugs@lists.postgresql.org\00", align 1
@.str.48 = private unnamed_addr constant [20 x i8] c"%s home page: <%s>\0A\00", align 1
@.str.49 = private unnamed_addr constant [11 x i8] c"PostgreSQL\00", align 1
@.str.50 = private unnamed_addr constant [28 x i8] c"https://www.postgresql.org/\00", align 1
@pset = external global %struct._psqlSettings, align 8

; Function Attrs: nounwind uwtable
define dso_local void @usage(i16 noundef zeroext %0) #0 {
  %2 = alloca i16, align 2
  %3 = alloca %struct.PQExpBufferData, align 8
  %4 = alloca i32, align 4
  %5 = alloca ptr, align 8
  %6 = alloca ptr, align 8
  store i16 %0, ptr %2, align 2
  call void @llvm.lifetime.start.p0(i64 24, ptr %3) #5
  call void @llvm.lifetime.start.p0(i64 4, ptr %4) #5
  call void @llvm.lifetime.start.p0(i64 8, ptr %5) #5
  call void @initPQExpBuffer(ptr noundef %3)
  call void @appendPQExpBufferStr(ptr noundef %3, ptr noundef @.str)
  call void @appendPQExpBufferStr(ptr noundef %3, ptr noundef @.str.1)
  call void @appendPQExpBufferStr(ptr noundef %3, ptr noundef @.str.2)
  call void @appendPQExpBufferStr(ptr noundef %3, ptr noundef @.str.3)
  call void @appendPQExpBufferStr(ptr noundef %3, ptr noundef @.str.4)
  call void @appendPQExpBufferStr(ptr noundef %3, ptr noundef @.str.5)
  call void @appendPQExpBufferStr(ptr noundef %3, ptr noundef @.str.6)
  call void @appendPQExpBufferStr(ptr noundef %3, ptr noundef @.str.7)
  call void @appendPQExpBufferStr(ptr noundef %3, ptr noundef @.str.8)
  call void @appendPQExpBufferStr(ptr noundef %3, ptr noundef @.str.9)
  call void @appendPQExpBufferStr(ptr noundef %3, ptr noundef @.str.10)
  call void @appendPQExpBufferStr(ptr noundef %3, ptr noundef @.str.11)
  call void @appendPQExpBufferStr(ptr noundef %3, ptr noundef @.str.12)
  call void @appendPQExpBufferStr(ptr noundef %3, ptr noundef @.str.13)
  call void @appendPQExpBufferStr(ptr noundef %3, ptr noundef @.str.14)
  call void @appendPQExpBufferStr(ptr noundef %3, ptr noundef @.str.15)
  call void @appendPQExpBufferStr(ptr noundef %3, ptr noundef @.str.16)
  call void @appendPQExpBufferStr(ptr noundef %3, ptr noundef @.str.17)
  call void @appendPQExpBufferStr(ptr noundef %3, ptr noundef @.str.18)
  call void @appendPQExpBufferStr(ptr noundef %3, ptr noundef @.str.19)
  call void @appendPQExpBufferStr(ptr noundef %3, ptr noundef @.str.20)
  call void @appendPQExpBufferStr(ptr noundef %3, ptr noundef @.str.21)
  call void @appendPQExpBufferStr(ptr noundef %3, ptr noundef @.str.22)
  call void @appendPQExpBufferStr(ptr noundef %3, ptr noundef @.str.23)
  call void @appendPQExpBufferStr(ptr noundef %3, ptr noundef @.str.24)
  call void @appendPQExpBufferStr(ptr noundef %3, ptr noundef @.str.25)
  call void @appendPQExpBufferStr(ptr noundef %3, ptr noundef @.str.26)
  call void @appendPQExpBufferStr(ptr noundef %3, ptr noundef @.str.27)
  call void @appendPQExpBufferStr(ptr noundef %3, ptr noundef @.str.28)
  call void (ptr, ptr, ...) @appendPQExpBuffer(ptr noundef %3, ptr noundef @.str.29, ptr noundef @.str.30)
  call void @appendPQExpBufferStr(ptr noundef %3, ptr noundef @.str.31)
  call void @appendPQExpBufferStr(ptr noundef %3, ptr noundef @.str.32)
  call void @appendPQExpBufferStr(ptr noundef %3, ptr noundef @.str.33)
  call void @appendPQExpBufferStr(ptr noundef %3, ptr noundef @.str.34)
  call void @appendPQExpBufferStr(ptr noundef %3, ptr noundef @.str.35)
  call void @appendPQExpBufferStr(ptr noundef %3, ptr noundef @.str.36)
  call void @appendPQExpBufferStr(ptr noundef %3, ptr noundef @.str.37)
  call void @appendPQExpBufferStr(ptr noundef %3, ptr noundef @.str.38)
  call void @appendPQExpBufferStr(ptr noundef %3, ptr noundef @.str.39)
  call void @appendPQExpBufferStr(ptr noundef %3, ptr noundef @.str.40)
  call void @appendPQExpBufferStr(ptr noundef %3, ptr noundef @.str.41)
  call void @appendPQExpBufferStr(ptr noundef %3, ptr noundef @.str.42)
  call void @appendPQExpBufferStr(ptr noundef %3, ptr noundef @.str.43)
  call void @appendPQExpBufferStr(ptr noundef %3, ptr noundef @.str.44)
  call void @appendPQExpBufferStr(ptr noundef %3, ptr noundef @.str.45)
  call void (ptr, ptr, ...) @appendPQExpBuffer(ptr noundef %3, ptr noundef @.str.46, ptr noundef @.str.47)
  call void (ptr, ptr, ...) @appendPQExpBuffer(ptr noundef %3, ptr noundef @.str.48, ptr noundef @.str.49, ptr noundef @.str.50)
  store i32 0, ptr %4, align 4
  call void @llvm.lifetime.start.p0(i64 8, ptr %6) #5
  %7 = getelementptr inbounds nuw %struct.PQExpBufferData, ptr %3, i32 0, i32 0
  %8 = load ptr, ptr %7, align 8
  store ptr %8, ptr %6, align 8
  br label %9

9:                                                ; preds = %23, %1
  %10 = load ptr, ptr %6, align 8
  %11 = load i8, ptr %10, align 1
  %12 = icmp ne i8 %11, 0
  br i1 %12, label %14, label %13

13:                                               ; preds = %9
  call void @llvm.lifetime.end.p0(i64 8, ptr %6) #5
  br label %26

14:                                               ; preds = %9
  %15 = load ptr, ptr %6, align 8
  %16 = load i8, ptr %15, align 1
  %17 = sext i8 %16 to i32
  %18 = icmp eq i32 %17, 10
  br i1 %18, label %19, label %22

19:                                               ; preds = %14
  %20 = load i32, ptr %4, align 4
  %21 = add i32 %20, 1
  store i32 %21, ptr %4, align 4
  br label %22

22:                                               ; preds = %19, %14
  br label %23

23:                                               ; preds = %22
  %24 = load ptr, ptr %6, align 8
  %25 = getelementptr inbounds nuw i8, ptr %24, i32 1
  store ptr %25, ptr %6, align 8
  br label %9, !llvm.loop !4

26:                                               ; preds = %13
  %27 = load i32, ptr %4, align 4
  %28 = load i16, ptr %2, align 2
  %29 = zext i16 %28 to i32
  %30 = icmp ne i32 %29, 0
  %31 = select i1 %30, ptr getelementptr inbounds nuw (%struct._psqlSettings, ptr @pset, i32 0, i32 6), ptr null
  %32 = call ptr @PageOutput(i32 noundef %27, ptr noundef %31)
  store ptr %32, ptr %5, align 8
  %33 = getelementptr inbounds nuw %struct.PQExpBufferData, ptr %3, i32 0, i32 0
  %34 = load ptr, ptr %33, align 8
  %35 = load ptr, ptr %5, align 8
  %36 = call i32 @fputs(ptr noundef %34, ptr noundef %35)
  %37 = load ptr, ptr %5, align 8
  call void @ClosePager(ptr noundef %37)
  call void @termPQExpBuffer(ptr noundef %3)
  call void @llvm.lifetime.end.p0(i64 8, ptr %5) #5
  call void @llvm.lifetime.end.p0(i64 4, ptr %4) #5
  call void @llvm.lifetime.end.p0(i64 24, ptr %3) #5
  ret void
}