; Function Attrs: nounwind uwtable
define dso_local void @usage(i16 noundef zeroext %0) local_unnamed_addr #0 {
  %2 = alloca %struct.PQExpBufferData, align 8
  call void @llvm.lifetime.start.p0(i64 24, ptr nonnull %2) #10
  call void @initPQExpBuffer(ptr noundef nonnull %2) #10
  call void @appendPQExpBufferStr(ptr noundef nonnull %2, ptr noundef nonnull @.str) #10
  call void @appendPQExpBufferStr(ptr noundef nonnull %2, ptr noundef nonnull @.str.1) #10
  call void @appendPQExpBufferStr(ptr noundef nonnull %2, ptr noundef nonnull @.str.2) #10
  call void @appendPQExpBufferStr(ptr noundef nonnull %2, ptr noundef nonnull @.str.3) #10
  call void @appendPQExpBufferStr(ptr noundef nonnull %2, ptr noundef nonnull @.str.4) #10
  call void @appendPQExpBufferStr(ptr noundef nonnull %2, ptr noundef nonnull @.str.5) #10
  call void @appendPQExpBufferStr(ptr noundef nonnull %2, ptr noundef nonnull @.str.6) #10
  call void @appendPQExpBufferStr(ptr noundef nonnull %2, ptr noundef nonnull @.str.7) #10
  call void @appendPQExpBufferStr(ptr noundef nonnull %2, ptr noundef nonnull @.str.8) #10
  call void @appendPQExpBufferStr(ptr noundef nonnull %2, ptr noundef nonnull @.str.9) #10
  call void @appendPQExpBufferStr(ptr noundef nonnull %2, ptr noundef nonnull @.str.10) #10
  call void @appendPQExpBufferStr(ptr noundef nonnull %2, ptr noundef nonnull @.str.11) #10
  call void @appendPQExpBufferStr(ptr noundef nonnull %2, ptr noundef nonnull @.str.12) #10
  call void @appendPQExpBufferStr(ptr noundef nonnull %2, ptr noundef nonnull @.str.13) #10
  call void @appendPQExpBufferStr(ptr noundef nonnull %2, ptr noundef nonnull @.str.14) #10
  call void @appendPQExpBufferStr(ptr noundef nonnull %2, ptr noundef nonnull @.str.15) #10
  call void @appendPQExpBufferStr(ptr noundef nonnull %2, ptr noundef nonnull @.str.16) #10
  call void @appendPQExpBufferStr(ptr noundef nonnull %2, ptr noundef nonnull @.str.17) #10
  call void @appendPQExpBufferStr(ptr noundef nonnull %2, ptr noundef nonnull @.str.18) #10
  call void @appendPQExpBufferStr(ptr noundef nonnull %2, ptr noundef nonnull @.str.19) #10
  call void @appendPQExpBufferStr(ptr noundef nonnull %2, ptr noundef nonnull @.str.20) #10
  call void @appendPQExpBufferStr(ptr noundef nonnull %2, ptr noundef nonnull @.str.21) #10
  call void @appendPQExpBufferStr(ptr noundef nonnull %2, ptr noundef nonnull @.str.22) #10
  call void @appendPQExpBufferStr(ptr noundef nonnull %2, ptr noundef nonnull @.str.23) #10
  call void @appendPQExpBufferStr(ptr noundef nonnull %2, ptr noundef nonnull @.str.24) #10
  call void @appendPQExpBufferStr(ptr noundef nonnull %2, ptr noundef nonnull @.str.25) #10
  call void @appendPQExpBufferStr(ptr noundef nonnull %2, ptr noundef nonnull @.str.26) #10
  call void @appendPQExpBufferStr(ptr noundef nonnull %2, ptr noundef nonnull @.str.27) #10
  call void @appendPQExpBufferStr(ptr noundef nonnull %2, ptr noundef nonnull @.str.28) #10
  call void (ptr, ptr, ...) @appendPQExpBuffer(ptr noundef nonnull %2, ptr noundef nonnull @.str.29, ptr noundef nonnull @.str.30) #10
  call void @appendPQExpBufferStr(ptr noundef nonnull %2, ptr noundef nonnull @.str.31) #10
  call void @appendPQExpBufferStr(ptr noundef nonnull %2, ptr noundef nonnull @.str.32) #10
  call void @appendPQExpBufferStr(ptr noundef nonnull %2, ptr noundef nonnull @.str.33) #10
  call void @appendPQExpBufferStr(ptr noundef nonnull %2, ptr noundef nonnull @.str.34) #10
  call void @appendPQExpBufferStr(ptr noundef nonnull %2, ptr noundef nonnull @.str.35) #10
  call void @appendPQExpBufferStr(ptr noundef nonnull %2, ptr noundef nonnull @.str.36) #10
  call void @appendPQExpBufferStr(ptr noundef nonnull %2, ptr noundef nonnull @.str.37) #10
  call void @appendPQExpBufferStr(ptr noundef nonnull %2, ptr noundef nonnull @.str.38) #10
  call void @appendPQExpBufferStr(ptr noundef nonnull %2, ptr noundef nonnull @.str.39) #10
  call void @appendPQExpBufferStr(ptr noundef nonnull %2, ptr noundef nonnull @.str.40) #10
  call void @appendPQExpBufferStr(ptr noundef nonnull %2, ptr noundef nonnull @.str.41) #10
  call void @appendPQExpBufferStr(ptr noundef nonnull %2, ptr noundef nonnull @.str.42) #10
  call void @appendPQExpBufferStr(ptr noundef nonnull %2, ptr noundef nonnull @.str.43) #10
  call void @appendPQExpBufferStr(ptr noundef nonnull %2, ptr noundef nonnull @.str.44) #10
  call void @appendPQExpBufferStr(ptr noundef nonnull %2, ptr noundef nonnull @.str.45) #10
  call void (ptr, ptr, ...) @appendPQExpBuffer(ptr noundef nonnull %2, ptr noundef nonnull @.str.46, ptr noundef nonnull @.str.47) #10
  call void (ptr, ptr, ...) @appendPQExpBuffer(ptr noundef nonnull %2, ptr noundef nonnull @.str.48, ptr noundef nonnull @.str.49, ptr noundef nonnull @.str.50) #10
  %3 = load ptr, ptr %2, align 8
  br label %4

4:                                                ; preds = %13, %1
  %.07 = phi i32 [ 0, %1 ], [ %.1, %13 ]
  %.0 = phi ptr [ %3, %1 ], [ %14, %13 ]
  %5 = load i8, ptr %.0, align 1
  switch i8 %5, label %13 [
    i8 0, label %6
    i8 10, label %11
  ]

6:                                                ; preds = %4
  %.not9 = icmp eq i16 %0, 0
  %7 = select i1 %.not9, ptr null, ptr getelementptr inbounds nuw (i8, ptr @pset, i64 48)
  %8 = call ptr @PageOutput(i32 noundef %.07, ptr noundef %7) #10
  %9 = load ptr, ptr %2, align 8
  %10 = call i32 @fputs(ptr noundef %9, ptr noundef %8)
  call void @ClosePager(ptr noundef %8) #10
  call void @termPQExpBuffer(ptr noundef nonnull %2) #10
  call void @llvm.lifetime.end.p0(i64 24, ptr nonnull %2) #10
  ret void

11:                                               ; preds = %4
  %12 = add i32 %.07, 1
  br label %13

13:                                               ; preds = %4, %11
  %.1 = phi i32 [ %12, %11 ], [ %.07, %4 ]
  %14 = getelementptr inbounds nuw i8, ptr %.0, i64 1
  br label %4, !llvm.loop !4
}